target datalayout = "e-m:e-p270:32:32-p271:32:32-p272:64:64-i64:64-i128:128-f80:128-n8:16:32:64-S128"
target triple = "x86_64-pc-linux-gnu"

%struct.EVP_AES_HMAC_SHA256 = type { %struct.aes_key_st, %struct.SHA256state_st, %struct.SHA256state_st, %struct.SHA256state_st, i64, %union.anon }
%struct.aes_key_st = type { [60 x i32], i32 }
%struct.SHA256state_st = type { [8 x i32], i32, i32, [16 x i32], i32, i32 }
%union.anon = type { i32, [12 x i8] }

; Function Attrs: nounwind uwtable
define internal i32 @aesni_cbc_hmac_sha256_init_key(ptr noundef %0, ptr noundef %1, ptr noundef %2, i32 noundef %3) #0 {
  %5 = alloca ptr, align 8
  %6 = alloca ptr, align 8
  %7 = alloca ptr, align 8
  %8 = alloca i32, align 4
  %9 = alloca ptr, align 8
  %10 = alloca i32, align 4
  store ptr %0, ptr %5, align 8, !tbaa !7
  store ptr %1, ptr %6, align 8, !tbaa !10
  store ptr %2, ptr %7, align 8, !tbaa !10
  store i32 %3, ptr %8, align 4, !tbaa !3
  call void @llvm.lifetime.start.p0(i64 8, ptr %9) #6
  %11 = load ptr, ptr %5, align 8, !tbaa !7
  %12 = call ptr @EVP_CIPHER_CTX_get_cipher_data(ptr noundef %11)
  store ptr %12, ptr %9, align 8, !tbaa !12
  call void @llvm.lifetime.start.p0(i64 4, ptr %10) #6
  %13 = load i32, ptr %8, align 4, !tbaa !3
  %14 = icmp ne i32 %13, 0
  br i1 %14, label %15, label %23

15:                                               ; preds = %4
  %16 = load ptr, ptr %6, align 8, !tbaa !10
  %17 = load ptr, ptr %5, align 8, !tbaa !7
  %18 = call i32 @EVP_CIPHER_CTX_get_key_length(ptr noundef %17)
  %19 = mul nsw i32 %18, 8
  %20 = load ptr, ptr %9, align 8, !tbaa !12
  %21 = getelementptr inbounds nuw %struct.EVP_AES_HMAC_SHA256, ptr %20, i32 0, i32 0
  %22 = call i32 @aesni_set_encrypt_key(ptr noundef %16, i32 noundef %19, ptr noundef %21)
  store i32 %22, ptr %10, align 4, !tbaa !3
  br label %31

23:                                               ; preds = %4
  %24 = load ptr, ptr %6, align 8, !tbaa !10
  %25 = load ptr, ptr %5, align 8, !tbaa !7
  %26 = call i32 @EVP_CIPHER_CTX_get_key_length(ptr noundef %25)
  %27 = mul nsw i32 %26, 8
  %28 = load ptr, ptr %9, align 8, !tbaa !12
  %29 = getelementptr inbounds nuw %struct.EVP_AES_HMAC_SHA256, ptr %28, i32 0, i32 0
  %30 = call i32 @aesni_set_decrypt_key(ptr noundef %24, i32 noundef %27, ptr noundef %29)
  store i32 %30, ptr %10, align 4, !tbaa !3
  br label %31

31:                                               ; preds = %23, %15
  %32 = load ptr, ptr %9, align 8, !tbaa !12
  %33 = getelementptr inbounds nuw %struct.EVP_AES_HMAC_SHA256, ptr %32, i32 0, i32 1
  %34 = call i32 @SHA256_Init(ptr noundef %33)
  %35 = load ptr, ptr %9, align 8, !tbaa !12
  %36 = getelementptr inbounds nuw %struct.EVP_AES_HMAC_SHA256, ptr %35, i32 0, i32 2
  %37 = load ptr, ptr %9, align 8, !tbaa !12
  %38 = getelementptr inbounds nuw %struct.EVP_AES_HMAC_SHA256, ptr %37, i32 0, i32 1
  call void @llvm.memcpy.p0.p0.i64(ptr align 4 %36, ptr align 4 %38, i64 112, i1 false), !tbaa.struct !13
  %39 = load ptr, ptr %9, align 8, !tbaa !12
  %40 = getelementptr inbounds nuw %struct.EVP_AES_HMAC_SHA256, ptr %39, i32 0, i32 3
  %41 = load ptr, ptr %9, align 8, !tbaa !12
  %42 = getelementptr inbounds nuw %struct.EVP_AES_HMAC_SHA256, ptr %41, i32 0, i32 1
  call void @llvm.memcpy.p0.p0.i64(ptr align 4 %40, ptr align 4 %42, i64 112, i1 false), !tbaa.struct !13
  %43 = load ptr, ptr %9, align 8, !tbaa !12
  %44 = getelementptr inbounds nuw %struct.EVP_AES_HMAC_SHA256, ptr %43, i32 0, i32 4
  store i64 -1, ptr %44, align 8, !tbaa !15
  %45 = load i32, ptr %10, align 4, !tbaa !3
  %46 = icmp slt i32 %45, 0
  %47 = select i1 %46, i32 0, i32 1
  call void @llvm.lifetime.end.p0(i64 4, ptr %10) #6
  call void @llvm.lifetime.end.p0(i64 8, ptr %9) #6
  ret i32 %47
}