; Function Attrs: nounwind uwtable
define internal range(i32 0, 2) i32 @aesni_cbc_hmac_sha256_init_key(ptr noundef %0, ptr noundef %1, ptr readnone captures(none) %2, i32 noundef %3) #0 {
  %5 = tail call ptr @EVP_CIPHER_CTX_get_cipher_data(ptr noundef %0) #6
  %.not = icmp eq i32 %3, 0
  %6 = tail call i32 @EVP_CIPHER_CTX_get_key_length(ptr noundef %0) #6
  %7 = shl nsw i32 %6, 3
  br i1 %.not, label %10, label %8

8:                                                ; preds = %4
  %9 = tail call i32 @aesni_set_encrypt_key(ptr noundef %1, i32 noundef %7, ptr noundef %5) #6
  br label %12

10:                                               ; preds = %4
  %11 = tail call i32 @aesni_set_decrypt_key(ptr noundef %1, i32 noundef %7, ptr noundef %5) #6
  br label %12

12:                                               ; preds = %10, %8
  %.0 = phi i32 [ %9, %8 ], [ %11, %10 ]
  %13 = getelementptr inbounds nuw i8, ptr %5, i64 244
  %14 = tail call i32 @SHA256_Init(ptr noundef nonnull %13) #6
  %15 = getelementptr inbounds nuw i8, ptr %5, i64 356
  tail call void @llvm.memcpy.p0.p0.i64(ptr noundef nonnull align 4 dereferenceable(112) %15, ptr noundef nonnull align 4 dereferenceable(112) %13, i64 112, i1 false), !tbaa.struct !7
  %16 = getelementptr inbounds nuw i8, ptr %5, i64 468
  tail call void @llvm.memcpy.p0.p0.i64(ptr noundef nonnull align 4 dereferenceable(112) %16, ptr noundef nonnull align 4 dereferenceable(112) %13, i64 112, i1 false), !tbaa.struct !7
  %17 = getelementptr inbounds nuw i8, ptr %5, i64 584
  store i64 -1, ptr %17, align 8, !tbaa !9
  %18 = icmp sgt i32 %.0, -1
  %19 = zext i1 %18 to i32
  ret i32 %19
}